target datalayout = "e-m:e-p270:32:32-p271:32:32-p272:64:64-i64:64-i128:128-f80:128-n8:16:32:64-S128"
target triple = "x86_64-pc-linux-gnu"

%struct.job_state_args_t = type { i32, i32, i32, ptr, i8 }
%struct.slurm_selected_step_t = type { ptr, i32, i32, %struct.slurm_step_id_msg }
%struct.slurm_step_id_msg = type { i64, i32, i32, i32 }

@cache_table = internal global ptr null, align 8
@.str.4 = private unnamed_addr constant [32 x i8] c"%s: pthread_rwlock_unlock(): %m\00", align 1
@.str.17 = private unnamed_addr constant [32 x i8] c"%s: pthread_rwlock_rdlock(): %m\00", align 1
@__func__._dump_job_state_cached = private unnamed_addr constant [23 x i8] c"_dump_job_state_cached\00", align 1
@.str.18 = private unnamed_addr constant [19 x i8] c"_foreach_cache_job\00", align 1
@cache_lock = internal global { { i32, i32, i32, i32, i32, i32, i32, i32, i8, [7 x i8], i64, i32, [4 x i8] } } zeroinitializer, align 8

; Function Attrs: nounwind uwtable
define internal void @_dump_job_state_cached(ptr noundef %0, i32 noundef %1, ptr noundef %2) #0 {
  %4 = alloca ptr, align 8
  %5 = alloca i32, align 4
  %6 = alloca ptr, align 8
  %7 = alloca i32, align 4
  %8 = alloca i32, align 4
  %9 = alloca i32, align 4
  store ptr %0, ptr %4, align 8
  store i32 %1, ptr %5, align 4
  store ptr %2, ptr %6, align 8
  br label %10

10:                                               ; preds = %3
  call void @llvm.lifetime.start.p0(i64 4, ptr %7) #8
  %11 = call i32 @pthread_rwlock_rdlock(ptr noundef @cache_lock) #8
  store i32 %11, ptr %7, align 4
  %12 = load i32, ptr %7, align 4
  %13 = icmp ne i32 %12, 0
  br i1 %13, label %14, label %17

14:                                               ; preds = %10
  %15 = load i32, ptr %7, align 4
  %16 = call ptr @__errno_location() #9
  store i32 %15, ptr %16, align 4
  call void (ptr, ...) @fatal_abort(ptr noundef @.str.17, ptr noundef @__func__._dump_job_state_cached) #10
  unreachable

17:                                               ; preds = %10
  call void @llvm.lifetime.end.p0(i64 4, ptr %7) #8
  br label %18

18:                                               ; preds = %17
  %19 = load i32, ptr %5, align 4
  %20 = icmp ne i32 %19, 0
  br i1 %20, label %25, label %21

21:                                               ; preds = %18
  %22 = load ptr, ptr @cache_table, align 8
  %23 = load ptr, ptr %4, align 8
  %24 = call i32 @xahash_foreach_entry_funcname(ptr noundef %22, ptr noundef @_foreach_cache_job, ptr noundef @.str.18, ptr noundef %23)
  br label %48

25:                                               ; preds = %18
  call void @llvm.lifetime.start.p0(i64 4, ptr %8) #8
  store i32 0, ptr %8, align 4
  br label %26

26:                                               ; preds = %44, %25
  %27 = load ptr, ptr %4, align 8
  %28 = getelementptr inbounds nuw %struct.job_state_args_t, ptr %27, i32 0, i32 1
  %29 = load i32, ptr %28, align 4
  %30 = icmp ne i32 %29, 0
  br i1 %30, label %35, label %31

31:                                               ; preds = %26
  %32 = load i32, ptr %8, align 4
  %33 = load i32, ptr %5, align 4
  %34 = icmp ult i32 %32, %33
  br label %35

35:                                               ; preds = %31, %26
  %36 = phi i1 [ false, %26 ], [ %34, %31 ]
  br i1 %36, label %38, label %37

37:                                               ; preds = %35
  call void @llvm.lifetime.end.p0(i64 4, ptr %8) #8
  br label %47

38:                                               ; preds = %35
  %39 = load ptr, ptr %4, align 8
  %40 = load ptr, ptr %6, align 8
  %41 = load i32, ptr %8, align 4
  %42 = sext i32 %41 to i64
  %43 = getelementptr inbounds %struct.slurm_selected_step_t, ptr %40, i64 %42
  call void @_find_job_state_cached_by_id(ptr noundef %39, ptr noundef %43)
  br label %44

44:                                               ; preds = %38
  %45 = load i32, ptr %8, align 4
  %46 = add nsw i32 %45, 1
  store i32 %46, ptr %8, align 4
  br label %26, !llvm.loop !10

47:                                               ; preds = %37
  br label %48

48:                                               ; preds = %47, %21
  br label %49

49:                                               ; preds = %48
  call void @llvm.lifetime.start.p0(i64 4, ptr %9) #8
  %50 = call i32 @pthread_rwlock_unlock(ptr noundef @cache_lock) #8
  store i32 %50, ptr %9, align 4
  %51 = load i32, ptr %9, align 4
  %52 = icmp ne i32 %51, 0
  br i1 %52, label %53, label %56

53:                                               ; preds = %49
  %54 = load i32, ptr %9, align 4
  %55 = call ptr @__errno_location() #9
  store i32 %54, ptr %55, align 4
  call void (ptr, ...) @fatal_abort(ptr noundef @.str.4, ptr noundef @__func__._dump_job_state_cached) #10
  unreachable

56:                                               ; preds = %49
  call void @llvm.lifetime.end.p0(i64 4, ptr %9) #8
  br label %57

57:                                               ; preds = %56
  ret void
}