; Function Attrs: nounwind uwtable
define internal fastcc void @_dump_job_state_cached(ptr noundef nonnull %0, i32 noundef %1, ptr noundef readonly captures(none) %2) unnamed_addr #0 {
  %4 = tail call i32 @pthread_rwlock_rdlock(ptr noundef nonnull @cache_lock) #9
  %.not = icmp eq i32 %4, 0
  br i1 %.not, label %7, label %5

5:                                                ; preds = %3
  %6 = tail call ptr @__errno_location() #10
  store i32 %4, ptr %6, align 4
  tail call void (ptr, ...) @fatal_abort(ptr noundef nonnull @.str.17, ptr noundef nonnull @__func__._dump_job_state_cached) #11
  unreachable

7:                                                ; preds = %3
  %.not15 = icmp eq i32 %1, 0
  br i1 %.not15, label %11, label %.preheader

.preheader:                                       ; preds = %7
  %8 = getelementptr inbounds nuw i8, ptr %0, i64 4
  %9 = load i32, ptr %8, align 4
  %.not1618 = icmp eq i32 %9, 0
  br i1 %.not1618, label %.lr.ph.preheader, label %.loopexit

.lr.ph.preheader:                                 ; preds = %.preheader
  %10 = zext i32 %1 to i64
  br label %.lr.ph

11:                                               ; preds = %7
  %12 = load ptr, ptr @cache_table, align 8
  %13 = tail call i32 @xahash_foreach_entry_funcname(ptr noundef %12, ptr noundef nonnull @_foreach_cache_job, ptr noundef nonnull @.str.18, ptr noundef nonnull %0) #9
  br label %.loopexit

.lr.ph:                                           ; preds = %.lr.ph.preheader, %.lr.ph
  %indvars.iv = phi i64 [ 0, %.lr.ph.preheader ], [ %indvars.iv.next, %.lr.ph ]
  %14 = getelementptr inbounds nuw %struct.slurm_selected_step_t, ptr %2, i64 %indvars.iv
  tail call fastcc void @_find_job_state_cached_by_id(ptr noundef %0, ptr noundef %14)
  %indvars.iv.next = add nuw nsw i64 %indvars.iv, 1
  %15 = load i32, ptr %8, align 4
  %.not16 = icmp eq i32 %15, 0
  %16 = icmp samesign ult i64 %indvars.iv.next, %10
  %17 = select i1 %.not16, i1 %16, i1 false
  br i1 %17, label %.lr.ph, label %.loopexit, !llvm.loop !12

.loopexit:                                        ; preds = %.lr.ph, %.preheader, %11
  %18 = tail call i32 @pthread_rwlock_unlock(ptr noundef nonnull @cache_lock) #9
  %.not17 = icmp eq i32 %18, 0
  br i1 %.not17, label %21, label %19

19:                                               ; preds = %.loopexit
  %20 = tail call ptr @__errno_location() #10
  store i32 %18, ptr %20, align 4
  tail call void (ptr, ...) @fatal_abort(ptr noundef nonnull @.str.4, ptr noundef nonnull @__func__._dump_job_state_cached) #11
  unreachable

21:                                               ; preds = %.loopexit
  ret void
}